target datalayout = "e-m:e-p270:32:32-p271:32:32-p272:64:64-i64:64-i128:128-f80:128-n8:16:32:64-S128"
target triple = "x86_64-pc-linux-gnu"

%"class.std::__cxx11::basic_string" = type { %"struct.std::__cxx11::basic_string<char>::_Alloc_hider", i64, %union.anon }
%"struct.std::__cxx11::basic_string<char>::_Alloc_hider" = type { ptr }
%union.anon = type { i64, [8 x i8] }
%"class.std::allocator.9" = type { i8 }
%"class.(anonymous namespace)::Helper" = type { ptr, ptr, %"class.std::__cxx11::basic_string" }

@.str.134 = private unnamed_addr constant [28 x i8] c"CMAKE_INSTALL_LOCALSTATEDIR\00", align 1
@.str.135 = private unnamed_addr constant [4 x i8] c"var\00", align 1
@.str.199 = private unnamed_addr constant [50 x i8] c"basic_string: construction from null is not valid\00", align 1

; Function Attrs: mustprogress nounwind uwtable
define linkonce_odr dso_local noundef i64 @_ZNSt11char_traitsIcE6lengthEPKc(ptr noundef %0) #5 comdat align 2 {
  %2 = alloca ptr, align 8
  store ptr %0, ptr %2, align 8
  %3 = load ptr, ptr %2, align 8
  %4 = call i64 @strlen(ptr noundef %3) #3
  ret i64 %4
}

; Function Attrs: mustprogress nounwind uwtable
define linkonce_odr dso_local void @_ZNSt7__cxx1112basic_stringIcSt11char_traitsIcESaIcEE12_Alloc_hiderD2Ev(ptr noundef nonnull align 8 dereferenceable(8) %0) unnamed_addr #5 comdat align 2 {
  %2 = alloca ptr, align 8
  store ptr %0, ptr %2, align 8
  %3 = load ptr, ptr %2, align 8
  call void @_ZNSaIcED2Ev(ptr noundef nonnull align 1 dereferenceable(1) %3) #3
  ret void
}

; Function Attrs: mustprogress uwtable
define internal void @_ZNK12_GLOBAL__N_16Helper14GetDestinationEPK25cmInstallCommandArgumentsRKNSt7__cxx1112basic_stringIcSt11char_traitsIcESaIcEEESB_(ptr dead_on_unwind noalias writable sret(%"class.std::__cxx11::basic_string") align 8 %0, ptr noundef nonnull align 8 dereferenceable(48) %1, ptr noundef %2, ptr noundef nonnull align 8 dereferenceable(32) %3, ptr noundef nonnull align 8 dereferenceable(32) %4) #6 align 2 personality ptr @__gxx_personality_v0 {
  %6 = alloca ptr, align 8
  %7 = alloca ptr, align 8
  %8 = alloca ptr, align 8
  %9 = alloca ptr, align 8
  %10 = alloca ptr, align 8
  %11 = alloca %"class.std::__cxx11::basic_string", align 8
  %12 = alloca i32, align 4
  %13 = alloca ptr, align 8
  %14 = alloca i32, align 4
  store ptr %0, ptr %6, align 8
  store ptr %1, ptr %7, align 8
  store ptr %2, ptr %8, align 8
  store ptr %3, ptr %9, align 8
  store ptr %4, ptr %10, align 8
  %15 = load ptr, ptr %7, align 8
  %16 = load ptr, ptr %8, align 8
  %17 = icmp ne ptr %16, null
  br i1 %17, label %18, label %25

18:                                               ; preds = %5
  %19 = load ptr, ptr %8, align 8
  %20 = call noundef nonnull align 8 dereferenceable(32) ptr @_ZNK25cmInstallCommandArguments14GetDestinationB5cxx11Ev(ptr noundef nonnull align 8 dereferenceable(440) %19)
  %21 = call noundef zeroext i1 @_ZNKSt7__cxx1112basic_stringIcSt11char_traitsIcESaIcEE5emptyEv(ptr noundef nonnull align 8 dereferenceable(32) %20) #3
  br i1 %21, label %25, label %22

22:                                               ; preds = %18
  %23 = load ptr, ptr %8, align 8
  %24 = call noundef nonnull align 8 dereferenceable(32) ptr @_ZNK25cmInstallCommandArguments14GetDestinationB5cxx11Ev(ptr noundef nonnull align 8 dereferenceable(440) %23)
  call void @_ZNSt7__cxx1112basic_stringIcSt11char_traitsIcESaIcEEC1ERKS4_(ptr noundef nonnull align 8 dereferenceable(32) %0, ptr noundef nonnull align 8 dereferenceable(32) %24)
  br label %40

25:                                               ; preds = %18, %5
  %26 = getelementptr inbounds %"class.(anonymous namespace)::Helper", ptr %15, i32 0, i32 1
  %27 = load ptr, ptr %26, align 8
  %28 = load ptr, ptr %9, align 8
  %29 = call noundef nonnull align 8 dereferenceable(32) ptr @_ZNK10cmMakefile17GetSafeDefinitionERKNSt7__cxx1112basic_stringIcSt11char_traitsIcESaIcEEE(ptr noundef nonnull align 8 dereferenceable(3520) %27, ptr noundef nonnull align 8 dereferenceable(32) %28)
  call void @_ZNSt7__cxx1112basic_stringIcSt11char_traitsIcESaIcEEC1ERKS4_(ptr noundef nonnull align 8 dereferenceable(32) %11, ptr noundef nonnull align 8 dereferenceable(32) %29)
  %30 = call noundef zeroext i1 @_ZNKSt7__cxx1112basic_stringIcSt11char_traitsIcESaIcEE5emptyEv(ptr noundef nonnull align 8 dereferenceable(32) %11) #3
  br i1 %30, label %32, label %31

31:                                               ; preds = %25
  call void @_ZNSt7__cxx1112basic_stringIcSt11char_traitsIcESaIcEEC1EOS4_(ptr noundef nonnull align 8 dereferenceable(32) %0, ptr noundef nonnull align 8 dereferenceable(32) %11) #3
  store i32 1, ptr %12, align 4
  br label %39

32:                                               ; preds = %25
  %33 = load ptr, ptr %10, align 8
  invoke void @_ZNSt7__cxx1112basic_stringIcSt11char_traitsIcESaIcEEC1ERKS4_(ptr noundef nonnull align 8 dereferenceable(32) %0, ptr noundef nonnull align 8 dereferenceable(32) %33)
          to label %34 unwind label %35

34:                                               ; preds = %32
  store i32 1, ptr %12, align 4
  br label %39

35:                                               ; preds = %32
  %36 = landingpad { ptr, i32 }
          cleanup
  %37 = extractvalue { ptr, i32 } %36, 0
  store ptr %37, ptr %13, align 8
  %38 = extractvalue { ptr, i32 } %36, 1
  store i32 %38, ptr %14, align 4
  call void @_ZNSt7__cxx1112basic_stringIcSt11char_traitsIcESaIcEED1Ev(ptr noundef nonnull align 8 dereferenceable(32) %11) #3
  br label %41

39:                                               ; preds = %34, %31
  call void @_ZNSt7__cxx1112basic_stringIcSt11char_traitsIcESaIcEED1Ev(ptr noundef nonnull align 8 dereferenceable(32) %11) #3
  br label %40

40:                                               ; preds = %39, %22
  ret void

41:                                               ; preds = %35
  %42 = load ptr, ptr %13, align 8
  %43 = load i32, ptr %14, align 4
  %44 = insertvalue { ptr, i32 } poison, ptr %42, 0
  %45 = insertvalue { ptr, i32 } %44, i32 %43, 1
  resume { ptr, i32 } %45
}

; Function Attrs: mustprogress uwtable
define linkonce_odr dso_local void @_ZNSt7__cxx1112basic_stringIcSt11char_traitsIcESaIcEEC2IS3_EEPKcRKS3_(ptr noundef nonnull align 8 dereferenceable(32) %0, ptr noundef %1, ptr noundef nonnull align 1 dereferenceable(1) %2) unnamed_addr #6 comdat align 2 personality ptr @__gxx_personality_v0 {
  %4 = alloca ptr, align 8
  %5 = alloca ptr, align 8
  %6 = alloca ptr, align 8
  %7 = alloca ptr, align 8
  %8 = alloca i32, align 4
  %9 = alloca ptr, align 8
  store ptr %0, ptr %4, align 8
  store ptr %1, ptr %5, align 8
  store ptr %2, ptr %6, align 8
  %10 = load ptr, ptr %4, align 8
  %11 = getelementptr inbounds %"class.std::__cxx11::basic_string", ptr %10, i32 0, i32 0
  %12 = call noundef ptr @_ZNSt7__cxx1112basic_stringIcSt11char_traitsIcESaIcEE13_M_local_dataEv(ptr noundef nonnull align 8 dereferenceable(32) %10)
  %13 = load ptr, ptr %6, align 8
  call void @_ZNSt7__cxx1112basic_stringIcSt11char_traitsIcESaIcEE12_Alloc_hiderC1EPcRKS3_(ptr noundef nonnull align 8 dereferenceable(8) %11, ptr noundef %12, ptr noundef nonnull align 1 dereferenceable(1) %13)
  %14 = load ptr, ptr %5, align 8
  %15 = icmp eq ptr %14, null
  br i1 %15, label %16, label %22

16:                                               ; preds = %3
  invoke void @_ZSt19__throw_logic_errorPKc(ptr noundef @.str.199) #14
          to label %17 unwind label %18

17:                                               ; preds = %16
  unreachable

18:                                               ; preds = %22, %16
  %19 = landingpad { ptr, i32 }
          cleanup
  %20 = extractvalue { ptr, i32 } %19, 0
  store ptr %20, ptr %7, align 8
  %21 = extractvalue { ptr, i32 } %19, 1
  store i32 %21, ptr %8, align 4
  call void @_ZNSt7__cxx1112basic_stringIcSt11char_traitsIcESaIcEE12_Alloc_hiderD2Ev(ptr noundef nonnull align 8 dereferenceable(8) %11) #3
  br label %30

22:                                               ; preds = %3
  %23 = load ptr, ptr %5, align 8
  %24 = load ptr, ptr %5, align 8
  %25 = call noundef i64 @_ZNSt11char_traitsIcE6lengthEPKc(ptr noundef %24)
  %26 = getelementptr inbounds i8, ptr %23, i64 %25
  store ptr %26, ptr %9, align 8
  %27 = load ptr, ptr %5, align 8
  %28 = load ptr, ptr %9, align 8
  invoke void @_ZNSt7__cxx1112basic_stringIcSt11char_traitsIcESaIcEE12_M_constructIPKcEEvT_S8_St20forward_iterator_tag(ptr noundef nonnull align 8 dereferenceable(32) %10, ptr noundef %27, ptr noundef %28)
          to label %29 unwind label %18

29:                                               ; preds = %22
  ret void

30:                                               ; preds = %18
  %31 = load ptr, ptr %7, align 8
  %32 = load i32, ptr %8, align 4
  %33 = insertvalue { ptr, i32 } poison, ptr %31, 0
  %34 = insertvalue { ptr, i32 } %33, i32 %32, 1
  resume { ptr, i32 } %34
}

; Function Attrs: mustprogress uwtable
define internal void @_ZNK12_GLOBAL__N_16Helper24GetLocalStateDestinationB5cxx11EPK25cmInstallCommandArguments(ptr dead_on_unwind noalias writable sret(%"class.std::__cxx11::basic_string") align 8 %0, ptr noundef nonnull align 8 dereferenceable(48) %1, ptr noundef %2) #6 align 2 personality ptr @__gxx_personality_v0 {
  %4 = alloca ptr, align 8
  %5 = alloca ptr, align 8
  %6 = alloca ptr, align 8
  %7 = alloca %"class.std::__cxx11::basic_string", align 8
  %8 = alloca %"class.std::allocator.9", align 1
  %9 = alloca ptr, align 8
  %10 = alloca i32, align 4
  %11 = alloca %"class.std::__cxx11::basic_string", align 8
  %12 = alloca %"class.std::allocator.9", align 1
  store ptr %0, ptr %4, align 8
  store ptr %1, ptr %5, align 8
  store ptr %2, ptr %6, align 8
  %13 = load ptr, ptr %5, align 8
  %14 = load ptr, ptr %6, align 8
  call void @_ZNSaIcEC1Ev(ptr noundef nonnull align 1 dereferenceable(1) %8) #3
  invoke void @_ZNSt7__cxx1112basic_stringIcSt11char_traitsIcESaIcEEC2IS3_EEPKcRKS3_(ptr noundef nonnull align 8 dereferenceable(32) %7, ptr noundef @.str.134, ptr noundef nonnull align 1 dereferenceable(1) %8)
          to label %15 unwind label %18

15:                                               ; preds = %3
  call void @_ZNSaIcEC1Ev(ptr noundef nonnull align 1 dereferenceable(1) %12) #3
  invoke void @_ZNSt7__cxx1112basic_stringIcSt11char_traitsIcESaIcEEC2IS3_EEPKcRKS3_(ptr noundef nonnull align 8 dereferenceable(32) %11, ptr noundef @.str.135, ptr noundef nonnull align 1 dereferenceable(1) %12)
          to label %16 unwind label %22

16:                                               ; preds = %15
  invoke void @_ZNK12_GLOBAL__N_16Helper14GetDestinationEPK25cmInstallCommandArgumentsRKNSt7__cxx1112basic_stringIcSt11char_traitsIcESaIcEEESB_(ptr dead_on_unwind writable sret(%"class.std::__cxx11::basic_string") align 8 %0, ptr noundef nonnull align 8 dereferenceable(48) %13, ptr noundef %14, ptr noundef nonnull align 8 dereferenceable(32) %7, ptr noundef nonnull align 8 dereferenceable(32) %11)
          to label %17 unwind label %26

17:                                               ; preds = %16
  call void @_ZNSt7__cxx1112basic_stringIcSt11char_traitsIcESaIcEED1Ev(ptr noundef nonnull align 8 dereferenceable(32) %11) #3
  call void @_ZNSaIcED1Ev(ptr noundef nonnull align 1 dereferenceable(1) %12) #3
  call void @_ZNSt7__cxx1112basic_stringIcSt11char_traitsIcESaIcEED1Ev(ptr noundef nonnull align 8 dereferenceable(32) %7) #3
  call void @_ZNSaIcED1Ev(ptr noundef nonnull align 1 dereferenceable(1) %8) #3
  ret void

18:                                               ; preds = %3
  %19 = landingpad { ptr, i32 }
          cleanup
  %20 = extractvalue { ptr, i32 } %19, 0
  store ptr %20, ptr %9, align 8
  %21 = extractvalue { ptr, i32 } %19, 1
  store i32 %21, ptr %10, align 4
  br label %31

22:                                               ; preds = %15
  %23 = landingpad { ptr, i32 }
          cleanup
  %24 = extractvalue { ptr, i32 } %23, 0
  store ptr %24, ptr %9, align 8
  %25 = extractvalue { ptr, i32 } %23, 1
  store i32 %25, ptr %10, align 4
  br label %30

26:                                               ; preds = %16
  %27 = landingpad { ptr, i32 }
          cleanup
  %28 = extractvalue { ptr, i32 } %27, 0
  store ptr %28, ptr %9, align 8
  %29 = extractvalue { ptr, i32 } %27, 1
  store i32 %29, ptr %10, align 4
  call void @_ZNSt7__cxx1112basic_stringIcSt11char_traitsIcESaIcEED1Ev(ptr noundef nonnull align 8 dereferenceable(32) %11) #3
  br label %30

30:                                               ; preds = %26, %22
  call void @_ZNSaIcED1Ev(ptr noundef nonnull align 1 dereferenceable(1) %12) #3
  call void @_ZNSt7__cxx1112basic_stringIcSt11char_traitsIcESaIcEED1Ev(ptr noundef nonnull align 8 dereferenceable(32) %7) #3
  br label %31

31:                                               ; preds = %30, %18
  call void @_ZNSaIcED1Ev(ptr noundef nonnull align 1 dereferenceable(1) %8) #3
  br label %32

32:                                               ; preds = %31
  %33 = load ptr, ptr %9, align 8
  %34 = load i32, ptr %10, align 4
  %35 = insertvalue { ptr, i32 } poison, ptr %33, 0
  %36 = insertvalue { ptr, i32 } %35, i32 %34, 1
  resume { ptr, i32 } %36
}